Certificate:
    Data:
        Version: 1 (0x0)
        Serial Number: 1 (0x1)
    Signature Algorithm: md5WithRSAEncryption
        Issuer: C=CN, ST=Beijing, L=Beijing, O=lzyh, OU=lzyh, CN=139.217.205.233
        Validity
            Not Before: Feb 27 10:58:35 2018 GMT
            Not After : Feb  8 10:58:35 2231 GMT
        Subject: 
        Subject Public Key Info:
            Public Key Algorithm: rsaEncryption
                Public-Key: (1024 bit)
                Modulus:
                    00:c7:21:70:ad:82:89:bf:3b:67:30:5e:d9:2e:3c:
                    07:d1:50:5f:e0:11:cc:ed:35:ef:51:a5:31:21:d7:
                    41:f4:ba:76:02:0a:2c:37:12:3d:d8:20:c2:68:a7:
                    3f:9a:78:b2:c7:41:ba:b9:4c:6c:f4:23:69:fc:c8:
                    cb:da:fa:81:07:83:1b:c5:f0:15:95:f9:97:88:6d:
                    01:8f:a9:75:d1:f0:ab:13:ec:3b:81:60:9a:b4:f7:
                    27:7a:d4:80:84:5a:ed:95:a6:75:05:c8:a8:69:eb:
                    6d:0d:a7:a3:fb:f0:31:1a:ee:4f:da:88:d4:ef:56:
                    b1:3d:fb:cc:72:8d:e5:95:2f
                Exponent: 65537 (0x10001)
    Signature Algorithm: md5WithRSAEncryption
         2e:3b:47:23:25:e8:a8:1e:2b:fd:02:fa:f5:b8:2e:06:15:f3:
         86:80:5e:f9:60:b8:06:97:cc:35:c5:e3:2c:65:e2:42:ac:52:
         44:18:80:2a:74:22:b1:17:4a:86:ff:92:76:69:e3:a4:45:7e:
         22:8e:f0:37:08:2e:c2:68:0b:82:00:61:50:54:9f:d2:e2:1e:
         a0:96:1b:ae:8a:2e:f1:58:da:f4:f1:04:bf:b0:0a:e1:03:0d:
         19:6b:4d:26:83:7f:9b:d8:c4:00:ee:34:03:dc:7c:c3:2a:eb:
         4c:79:55:8b:02:57:a0:c9:4b:ea:37:68:9f:0e:73:f7:6c:e2:
         61:25
-----BEGIN CERTIFICATE-----
MIIB2jCCAUMCAQEwDQYJKoZIhvcNAQEEBQAwaTELMAkGA1UEBhMCQ04xEDAOBgNV
BAgMB0JlaWppbmcxEDAOBgNVBAcMB0JlaWppbmcxDTALBgNVBAoMBGx6eWgxDTAL
BgNVBAsMBGx6eWgxGDAWBgNVBAMMDzEzOS4yMTcuMjA1LjIzMzAgFw0xODAyMjcx
MDU4MzVaGA8yMjMxMDIwODEwNTgzNVowADCBnzANBgkqhkiG9w0BAQEFAAOBjQAw
gYkCgYEAxyFwrYKJvztnMF7ZLjwH0VBf4BHM7TXvUaUxIddB9Lp2AgosNxI92CDC
aKc/mniyx0G6uUxs9CNp/MjL2vqBB4MbxfAVlfmXiG0Bj6l10fCrE+w7gWCatPcn
etSAhFrtlaZ1BcioaettDaej+/AxGu5P2ojU71axPfvMco3llS8CAwEAATANBgkq
hkiG9w0BAQQFAAOBgQAuO0cjJeioHiv9Avr1uC4GFfOGgF75YLgGl8w1xeMsZeJC
rFJEGIAqdCKxF0qG/5J2aeOkRX4ijvA3CC7CaAuCAGFQVJ/S4h6glhuuii7xWNr0
8QS/sArhAw0Za00mg3+b2MQA7jQD3HzDKutMeVWLAlegyUvqN2ifDnP3bOJhJQ==
-----END CERTIFICATE-----
